target datalayout = "e-m:e-p270:32:32-p271:32:32-p272:64:64-i64:64-i128:128-f80:128-n8:16:32:64-S128"
target triple = "x86_64-pc-linux-gnu"

%struct._internal_exr_filehandle = type { i32 }

@.str.19 = private unnamed_addr constant [28 x i8] c"Invalid file handle pointer\00", align 1
@.str.20 = private unnamed_addr constant [24 x i8] c"Invalid file descriptor\00", align 1
@.str.28 = private unnamed_addr constant [51 x i8] c"Unable to write %lu bytes to stream, wrote %ld: %s\00", align 1

; Function Attrs: nounwind uwtable
define internal i64 @default_write_func(ptr noundef %0, ptr noundef %1, ptr noundef %2, i64 noundef %3, i64 noundef %4, ptr noundef %5) #0 {
  %7 = alloca i64, align 8
  %8 = alloca ptr, align 8
  %9 = alloca ptr, align 8
  %10 = alloca ptr, align 8
  %11 = alloca i64, align 8
  %12 = alloca i64, align 8
  %13 = alloca ptr, align 8
  %14 = alloca i64, align 8
  %15 = alloca i64, align 8
  %16 = alloca ptr, align 8
  %17 = alloca i32, align 4
  %18 = alloca ptr, align 8
  %19 = alloca i64, align 8
  %20 = alloca i32, align 4
  store ptr %0, ptr %8, align 8, !tbaa !12
  store ptr %1, ptr %9, align 8, !tbaa !45
  store ptr %2, ptr %10, align 8, !tbaa !45
  store i64 %3, ptr %11, align 8, !tbaa !46
  store i64 %4, ptr %12, align 8, !tbaa !46
  store ptr %5, ptr %13, align 8, !tbaa !45
  call void @llvm.lifetime.start.p0(i64 8, ptr %14) #9
  call void @llvm.lifetime.start.p0(i64 8, ptr %15) #9
  store i64 -1, ptr %15, align 8, !tbaa !46
  call void @llvm.lifetime.start.p0(i64 8, ptr %16) #9
  %21 = load ptr, ptr %9, align 8, !tbaa !45
  store ptr %21, ptr %16, align 8, !tbaa !54
  call void @llvm.lifetime.start.p0(i64 4, ptr %17) #9
  store i32 -1, ptr %17, align 4, !tbaa !10
  call void @llvm.lifetime.start.p0(i64 8, ptr %18) #9
  %22 = load ptr, ptr %10, align 8, !tbaa !45
  store ptr %22, ptr %18, align 8, !tbaa !3
  call void @llvm.lifetime.start.p0(i64 8, ptr %19) #9
  %23 = load i64, ptr %11, align 8, !tbaa !46
  store i64 %23, ptr %19, align 8, !tbaa !46
  %24 = load ptr, ptr %16, align 8, !tbaa !54
  %25 = icmp ne ptr %24, null
  br i1 %25, label %35, label %26

26:                                               ; preds = %6
  %27 = load ptr, ptr %13, align 8, !tbaa !45
  %28 = icmp ne ptr %27, null
  br i1 %28, label %29, label %33

29:                                               ; preds = %26
  %30 = load ptr, ptr %13, align 8, !tbaa !45
  %31 = load ptr, ptr %8, align 8, !tbaa !12
  %32 = call i32 (ptr, i32, ptr, ...) %30(ptr noundef %31, i32 noundef 3, ptr noundef @.str.19)
  br label %33

33:                                               ; preds = %29, %26
  %34 = load i64, ptr %15, align 8, !tbaa !46
  store i64 %34, ptr %7, align 8
  store i32 1, ptr %20, align 4
  br label %105

35:                                               ; preds = %6
  %36 = load ptr, ptr %16, align 8, !tbaa !54
  %37 = getelementptr inbounds nuw %struct._internal_exr_filehandle, ptr %36, i32 0, i32 0
  %38 = load i32, ptr %37, align 4, !tbaa !56
  store i32 %38, ptr %17, align 4, !tbaa !10
  %39 = load i32, ptr %17, align 4, !tbaa !10
  %40 = icmp slt i32 %39, 0
  br i1 %40, label %41, label %50

41:                                               ; preds = %35
  %42 = load ptr, ptr %13, align 8, !tbaa !45
  %43 = icmp ne ptr %42, null
  br i1 %43, label %44, label %48

44:                                               ; preds = %41
  %45 = load ptr, ptr %13, align 8, !tbaa !45
  %46 = load ptr, ptr %8, align 8, !tbaa !12
  %47 = call i32 (ptr, i32, ptr, ...) %45(ptr noundef %46, i32 noundef 3, ptr noundef @.str.20)
  br label %48

48:                                               ; preds = %44, %41
  %49 = load i64, ptr %15, align 8, !tbaa !46
  store i64 %49, ptr %7, align 8
  store i32 1, ptr %20, align 4
  br label %105

50:                                               ; preds = %35
  store i64 0, ptr %15, align 8, !tbaa !46
  br label %51

51:                                               ; preds = %83, %50
  %52 = load i32, ptr %17, align 4, !tbaa !10
  %53 = load ptr, ptr %18, align 8, !tbaa !3
  %54 = load i64, ptr %19, align 8, !tbaa !46
  %55 = load i64, ptr %12, align 8, !tbaa !46
  %56 = call i64 @pwrite(i32 noundef %52, ptr noundef %53, i64 noundef %54, i64 noundef %55)
  store i64 %56, ptr %14, align 8, !tbaa !46
  %57 = load i64, ptr %14, align 8, !tbaa !46
  %58 = icmp slt i64 %57, 0
  br i1 %58, label %59, label %70

59:                                               ; preds = %51
  %60 = call ptr @__errno_location() #10
  %61 = load i32, ptr %60, align 4, !tbaa !10
  %62 = icmp eq i32 %61, 4
  br i1 %62, label %63, label %64

63:                                               ; preds = %59
  br label %83

64:                                               ; preds = %59
  %65 = call ptr @__errno_location() #10
  %66 = load i32, ptr %65, align 4, !tbaa !10
  %67 = icmp eq i32 %66, 11
  br i1 %67, label %68, label %69

68:                                               ; preds = %64
  br label %83

69:                                               ; preds = %64
  store i64 -1, ptr %15, align 8, !tbaa !46
  br label %87

70:                                               ; preds = %51
  %71 = load i64, ptr %14, align 8, !tbaa !46
  %72 = load i64, ptr %15, align 8, !tbaa !46
  %73 = add nsw i64 %72, %71
  store i64 %73, ptr %15, align 8, !tbaa !46
  %74 = load i64, ptr %14, align 8, !tbaa !46
  %75 = load ptr, ptr %18, align 8, !tbaa !3
  %76 = getelementptr inbounds i8, ptr %75, i64 %74
  store ptr %76, ptr %18, align 8, !tbaa !3
  %77 = load i64, ptr %14, align 8, !tbaa !46
  %78 = load i64, ptr %19, align 8, !tbaa !46
  %79 = sub i64 %78, %77
  store i64 %79, ptr %19, align 8, !tbaa !46
  %80 = load i64, ptr %14, align 8, !tbaa !46
  %81 = load i64, ptr %12, align 8, !tbaa !46
  %82 = add i64 %81, %80
  store i64 %82, ptr %12, align 8, !tbaa !46
  br label %83

83:                                               ; preds = %70, %68, %63
  %84 = load i64, ptr %15, align 8, !tbaa !46
  %85 = load i64, ptr %11, align 8, !tbaa !46
  %86 = icmp slt i64 %84, %85
  br i1 %86, label %51, label %87, !llvm.loop !129

87:                                               ; preds = %83, %69
  %88 = load i64, ptr %15, align 8, !tbaa !46
  %89 = load i64, ptr %11, align 8, !tbaa !46
  %90 = icmp ne i64 %88, %89
  br i1 %90, label %91, label %103

91:                                               ; preds = %87
  %92 = load ptr, ptr %13, align 8, !tbaa !45
  %93 = icmp ne ptr %92, null
  br i1 %93, label %94, label %103

94:                                               ; preds = %91
  %95 = load ptr, ptr %13, align 8, !tbaa !45
  %96 = load ptr, ptr %8, align 8, !tbaa !12
  %97 = load i64, ptr %11, align 8, !tbaa !46
  %98 = load i64, ptr %15, align 8, !tbaa !46
  %99 = call ptr @__errno_location() #10
  %100 = load i32, ptr %99, align 4, !tbaa !10
  %101 = call ptr @strerror(i32 noundef %100) #9
  %102 = call i32 (ptr, i32, ptr, ...) %95(ptr noundef %96, i32 noundef 11, ptr noundef @.str.28, i64 noundef %97, i64 noundef %98, ptr noundef %101)
  br label %103

103:                                              ; preds = %94, %91, %87
  %104 = load i64, ptr %15, align 8, !tbaa !46
  store i64 %104, ptr %7, align 8
  store i32 1, ptr %20, align 4
  br label %105

105:                                              ; preds = %103, %48, %33
  call void @llvm.lifetime.end.p0(i64 8, ptr %19) #9
  call void @llvm.lifetime.end.p0(i64 8, ptr %18) #9
  call void @llvm.lifetime.end.p0(i64 4, ptr %17) #9
  call void @llvm.lifetime.end.p0(i64 8, ptr %16) #9
  call void @llvm.lifetime.end.p0(i64 8, ptr %15) #9
  call void @llvm.lifetime.end.p0(i64 8, ptr %14) #9
  %106 = load i64, ptr %7, align 8
  ret i64 %106
}