; Function Attrs: nounwind uwtable
define internal range(i64 -1, -9223372036854775808) i64 @default_write_func(ptr noundef %0, ptr noundef readonly %1, ptr noundef readonly captures(none) %2, i64 noundef %3, i64 noundef %4, ptr noundef readonly %5) #0 {
  %.not = icmp eq ptr %1, null
  br i1 %.not, label %7, label %10

7:                                                ; preds = %6
  %.not53 = icmp eq ptr %5, null
  br i1 %.not53, label %36, label %8

8:                                                ; preds = %7
  %9 = tail call i32 (ptr, i32, ptr, ...) %5(ptr noundef %0, i32 noundef 3, ptr noundef nonnull @.str.19) #13
  br label %36

10:                                               ; preds = %6
  %11 = load i32, ptr %1, align 4, !tbaa !45
  %12 = icmp slt i32 %11, 0
  br i1 %12, label %13, label %.preheader

13:                                               ; preds = %10
  %.not54 = icmp eq ptr %5, null
  br i1 %.not54, label %36, label %14

14:                                               ; preds = %13
  %15 = tail call i32 (ptr, i32, ptr, ...) %5(ptr noundef %0, i32 noundef 3, ptr noundef nonnull @.str.20) #13
  br label %36

.preheader:                                       ; preds = %10, %26
  %.043 = phi i64 [ %.144, %26 ], [ %4, %10 ]
  %.041 = phi i64 [ %.142, %26 ], [ 0, %10 ]
  %.038 = phi ptr [ %.139, %26 ], [ %2, %10 ]
  %.0 = phi i64 [ %.1, %26 ], [ %3, %10 ]
  %16 = tail call i64 @pwrite(i32 noundef %11, ptr noundef %.038, i64 noundef %.0, i64 noundef %.043) #13
  %17 = icmp slt i64 %16, 0
  br i1 %17, label %18, label %21

18:                                               ; preds = %.preheader
  %19 = tail call ptr @__errno_location() #14
  %20 = load i32, ptr %19, align 4, !tbaa !51
  switch i32 %20, label %28 [
    i32 4, label %26
    i32 11, label %26
  ]

21:                                               ; preds = %.preheader
  %22 = add nuw nsw i64 %16, %.041
  %23 = getelementptr inbounds nuw i8, ptr %.038, i64 %16
  %24 = sub i64 %.0, %16
  %25 = add i64 %16, %.043
  br label %26

26:                                               ; preds = %18, %18, %21
  %.144 = phi i64 [ %.043, %18 ], [ %25, %21 ], [ %.043, %18 ]
  %.142 = phi i64 [ %.041, %18 ], [ %22, %21 ], [ %.041, %18 ]
  %.139 = phi ptr [ %.038, %18 ], [ %23, %21 ], [ %.038, %18 ]
  %.1 = phi i64 [ %.0, %18 ], [ %24, %21 ], [ %.0, %18 ]
  %27 = icmp slt i64 %.142, %3
  br i1 %27, label %.preheader, label %28, !llvm.loop !124

28:                                               ; preds = %18, %26
  %.2 = phi i64 [ %.142, %26 ], [ -1, %18 ]
  %29 = icmp ne i64 %.2, %3
  %30 = icmp ne ptr %5, null
  %or.cond = and i1 %30, %29
  br i1 %or.cond, label %31, label %36

31:                                               ; preds = %28
  %32 = tail call ptr @__errno_location() #14
  %33 = load i32, ptr %32, align 4, !tbaa !51
  %34 = tail call ptr @strerror(i32 noundef %33) #13
  %35 = tail call i32 (ptr, i32, ptr, ...) %5(ptr noundef %0, i32 noundef 11, ptr noundef nonnull @.str.28, i64 noundef %3, i64 noundef %.2, ptr noundef %34) #13
  br label %36

36:                                               ; preds = %28, %31, %13, %14, %7, %8
  %.040 = phi i64 [ -1, %8 ], [ -1, %7 ], [ -1, %14 ], [ -1, %13 ], [ %.2, %31 ], [ %.2, %28 ]
  ret i64 %.040
}